target datalayout = "e-m:e-p270:32:32-p271:32:32-p272:64:64-i64:64-i128:128-f80:128-n8:16:32:64-S128"
target triple = "x86_64-pc-linux-gnu"

%"class.std::vector" = type { %"struct.std::_Vector_base" }
%"struct.std::_Vector_base" = type { %"struct.std::_Vector_base<const Variable *, std::allocator<const Variable *>>::_Vector_impl" }
%"struct.std::_Vector_base<const Variable *, std::allocator<const Variable *>>::_Vector_impl" = type { %"struct.std::_Vector_base<const Variable *, std::allocator<const Variable *>>::_Vector_impl_data" }
%"struct.std::_Vector_base<const Variable *, std::allocator<const Variable *>>::_Vector_impl_data" = type { ptr, ptr, ptr }
%class.CGContext = type { ptr, i32, i32, i32, %"class.std::vector.0", ptr, ptr, %"class.std::map", ptr, ptr, ptr, %class.Effect }
%"class.std::vector.0" = type { %"struct.std::_Vector_base.1" }
%"struct.std::_Vector_base.1" = type { %"struct.std::_Vector_base<const Block *, std::allocator<const Block *>>::_Vector_impl" }
%"struct.std::_Vector_base<const Block *, std::allocator<const Block *>>::_Vector_impl" = type { %"struct.std::_Vector_base<const Block *, std::allocator<const Block *>>::_Vector_impl_data" }
%"struct.std::_Vector_base<const Block *, std::allocator<const Block *>>::_Vector_impl_data" = type { ptr, ptr, ptr }
%"class.std::map" = type { %"class.std::_Rb_tree" }
%"class.std::_Rb_tree" = type { %"struct.std::_Rb_tree<const Variable *, std::pair<const Variable *const, unsigned int>, std::_Select1st<std::pair<const Variable *const, unsigned int>>, std::less<const Variable *>>::_Rb_tree_impl" }
%"struct.std::_Rb_tree<const Variable *, std::pair<const Variable *const, unsigned int>, std::_Select1st<std::pair<const Variable *const, unsigned int>>, std::less<const Variable *>>::_Rb_tree_impl" = type { %"struct.std::_Rb_tree_key_compare", %"struct.std::_Rb_tree_header" }
%"struct.std::_Rb_tree_key_compare" = type { %"struct.std::less" }
%"struct.std::less" = type { i8 }
%"struct.std::_Rb_tree_header" = type { %"struct.std::_Rb_tree_node_base", i64 }
%"struct.std::_Rb_tree_node_base" = type { i32, ptr, ptr, ptr }
%class.Effect = type <{ %"class.std::vector", %"class.std::vector", %"class.std::vector", i8, i8, [6 x i8] }>

; Function Attrs: mustprogress nounwind uwtable
define linkonce_odr dso_local noundef zeroext i1 @_ZNK6Effect19is_side_effect_freeEv(ptr noundef nonnull align 8 dereferenceable(74) %0) #4 comdat align 2 {
  %2 = alloca ptr, align 8
  store ptr %0, ptr %2, align 8
  %3 = load ptr, ptr %2, align 8
  %4 = getelementptr inbounds %class.Effect, ptr %3, i32 0, i32 4
  %5 = load i8, ptr %4, align 1
  %6 = trunc i8 %5 to i1
  ret i1 %6
}

; Function Attrs: mustprogress uwtable
define dso_local noundef zeroext i1 @_ZN9CGContext20check_deref_volatileEPK8Variablei(ptr noundef nonnull align 8 dereferenceable(216) %0, ptr noundef %1, i32 noundef %2) #5 align 2 {
  %4 = alloca i1, align 1
  %5 = alloca ptr, align 8
  %6 = alloca ptr, align 8
  %7 = alloca i32, align 4
  %8 = alloca i32, align 4
  store ptr %0, ptr %5, align 8
  store ptr %1, ptr %6, align 8
  store i32 %2, ptr %7, align 4
  %9 = load ptr, ptr %5, align 8
  %10 = call noundef zeroext i1 @_ZN9CGOptions20strict_volatile_ruleEv()
  br i1 %10, label %12, label %11

11:                                               ; preds = %3
  store i1 true, ptr %4, align 1
  br label %43

12:                                               ; preds = %3
  %13 = load i32, ptr %7, align 4
  store i32 %13, ptr %8, align 4
  %14 = getelementptr inbounds %class.CGContext, ptr %9, i32 0, i32 9
  %15 = load ptr, ptr %14, align 8
  %16 = call noundef zeroext i1 @_ZNK6Effect19is_side_effect_freeEv(ptr noundef nonnull align 8 dereferenceable(74) %15)
  br i1 %16, label %30, label %17

17:                                               ; preds = %12
  br label %18

18:                                               ; preds = %26, %17
  %19 = load i32, ptr %8, align 4
  %20 = icmp sgt i32 %19, 0
  br i1 %20, label %21, label %29

21:                                               ; preds = %18
  %22 = load ptr, ptr %6, align 8
  %23 = load i32, ptr %8, align 4
  %24 = call noundef zeroext i1 @_ZNK8Variable23is_volatile_after_derefEi(ptr noundef nonnull align 8 dereferenceable(200) %22, i32 noundef %23)
  br i1 %24, label %25, label %26

25:                                               ; preds = %21
  store i1 false, ptr %4, align 1
  br label %43

26:                                               ; preds = %21
  %27 = load i32, ptr %8, align 4
  %28 = add nsw i32 %27, -1
  store i32 %28, ptr %8, align 4
  br label %18, !llvm.loop !9

29:                                               ; preds = %18
  br label %30

30:                                               ; preds = %29, %12
  %31 = getelementptr inbounds %class.CGContext, ptr %9, i32 0, i32 10
  %32 = load ptr, ptr %31, align 8
  %33 = icmp ne ptr %32, null
  br i1 %33, label %34, label %39

34:                                               ; preds = %30
  %35 = getelementptr inbounds %class.CGContext, ptr %9, i32 0, i32 10
  %36 = load ptr, ptr %35, align 8
  %37 = load ptr, ptr %6, align 8
  %38 = load i32, ptr %7, align 4
  call void @_ZN6Effect21access_deref_volatileEPK8Variablei(ptr noundef nonnull align 8 dereferenceable(74) %36, ptr noundef %37, i32 noundef %38)
  br label %39

39:                                               ; preds = %34, %30
  %40 = getelementptr inbounds %class.CGContext, ptr %9, i32 0, i32 11
  %41 = load ptr, ptr %6, align 8
  %42 = load i32, ptr %7, align 4
  call void @_ZN6Effect21access_deref_volatileEPK8Variablei(ptr noundef nonnull align 8 dereferenceable(74) %40, ptr noundef %41, i32 noundef %42)
  store i1 true, ptr %4, align 1
  br label %43

43:                                               ; preds = %39, %25, %11
  %44 = load i1, ptr %4, align 1
  ret i1 %44
}