; Function Attrs: mustprogress uwtable
define dso_local noundef zeroext i1 @_ZN9CGContext20check_deref_volatileEPK8Variablei(ptr noundef nonnull align 8 dereferenceable(216) %0, ptr noundef %1, i32 noundef %2) local_unnamed_addr #4 align 2 {
  %4 = tail call noundef zeroext i1 @_ZN9CGOptions20strict_volatile_ruleEv()
  br i1 %4, label %5, label %.loopexit

5:                                                ; preds = %3
  %6 = getelementptr inbounds nuw i8, ptr %0, i64 120
  %7 = load ptr, ptr %6, align 8
  %8 = getelementptr inbounds nuw i8, ptr %7, i64 73
  %9 = load i8, ptr %8, align 1
  %10 = trunc i8 %9 to i1
  %11 = icmp slt i32 %2, 1
  %or.cond.not = or i1 %11, %10
  br i1 %or.cond.not, label %.loopexit17, label %.preheader

.preheader:                                       ; preds = %5, %13
  %.0 = phi i32 [ %14, %13 ], [ %2, %5 ]
  %12 = tail call noundef zeroext i1 @_ZNK8Variable23is_volatile_after_derefEi(ptr noundef nonnull align 8 dereferenceable(200) %1, i32 noundef %.0)
  br i1 %12, label %.loopexit, label %13

13:                                               ; preds = %.preheader
  %14 = add nsw i32 %.0, -1
  %.old1 = icmp sgt i32 %.0, 1
  br i1 %.old1, label %.preheader, label %.loopexit17

.loopexit17:                                      ; preds = %13, %5
  %15 = getelementptr inbounds nuw i8, ptr %0, i64 128
  %16 = load ptr, ptr %15, align 8
  %.not = icmp eq ptr %16, null
  br i1 %.not, label %18, label %17

17:                                               ; preds = %.loopexit17
  tail call void @_ZN6Effect21access_deref_volatileEPK8Variablei(ptr noundef nonnull align 8 dereferenceable(74) %16, ptr noundef %1, i32 noundef %2)
  br label %18

18:                                               ; preds = %17, %.loopexit17
  %19 = getelementptr inbounds nuw i8, ptr %0, i64 136
  tail call void @_ZN6Effect21access_deref_volatileEPK8Variablei(ptr noundef nonnull align 8 dereferenceable(74) %19, ptr noundef %1, i32 noundef %2)
  br label %.loopexit

.loopexit:                                        ; preds = %.preheader, %3, %18
  %.012 = phi i1 [ true, %18 ], [ true, %3 ], [ false, %.preheader ]
  ret i1 %.012
}